; Function Attrs: nounwind uwtable
define dso_local void @bit_rotate(ptr noundef captures(none) %0, i32 noundef %1) #0 {
  %3 = alloca ptr, align 8
  call void @llvm.lifetime.start.p0(i64 8, ptr nonnull %3) #17
  %4 = icmp eq i32 %1, 0
  br i1 %4, label %17, label %5

5:                                                ; preds = %2
  %6 = getelementptr inbounds nuw i8, ptr %0, i64 8
  %7 = load i64, ptr %6, align 8
  %8 = and i64 %7, 4294967295
  %9 = tail call ptr @bit_rotate_copy(ptr noundef %0, i32 noundef %1, i64 noundef %8)
  store ptr %9, ptr %3, align 8
  %10 = getelementptr inbounds nuw i8, ptr %9, i64 8
  %11 = load i64, ptr %10, align 8
  %12 = getelementptr inbounds nuw i8, ptr %0, i64 16
  %13 = getelementptr inbounds nuw i8, ptr %9, i64 16
  %14 = shl i64 %11, 29
  %15 = add i64 %14, 33822867456
  %sext.i = ashr i64 %15, 32
  %16 = and i64 %sext.i, -8
  tail call void @llvm.memcpy.p0.p0.i64(ptr nonnull align 8 %12, ptr nonnull readonly align 8 %13, i64 %16, i1 false)
  call void @slurm_bit_free(ptr noundef nonnull %3)
  br label %17

17:                                               ; preds = %2, %5
  call void @llvm.lifetime.end.p0(i64 8, ptr nonnull %3) #17
  ret void
}